target datalayout = "e-m:e-p270:32:32-p271:32:32-p272:64:64-i64:64-i128:128-f80:128-n8:16:32:64-S128"
target triple = "x86_64-pc-linux-gnu"

@key_file = internal global ptr null, align 8
@.str.16 = private unnamed_addr constant [39 x i8] c"../openssl/test/bio_pw_callback_test.c\00", align 1
@.str.17 = private unnamed_addr constant [34 x i8] c"bio = BIO_new_file(key_file, \22r\22)\00", align 1
@.str.18 = private unnamed_addr constant [2 x i8] c"r\00", align 1
@.str.19 = private unnamed_addr constant [73 x i8] c"PEM_read_bio_PrivateKey(bio, &original_pkey, callback_original_pw, NULL)\00", align 1
@original_pkey = internal global ptr null, align 8
@.str.20 = private unnamed_addr constant [18 x i8] c"test_pem_negative\00", align 1
@.str.21 = private unnamed_addr constant [21 x i8] c"test_pem_zero_length\00", align 1
@.str.22 = private unnamed_addr constant [14 x i8] c"test_pem_weak\00", align 1
@.str.23 = private unnamed_addr constant [16 x i8] c"test_pem_16zero\00", align 1
@.str.24 = private unnamed_addr constant [13 x i8] c"test_pem_a0a\00", align 1
@.str.25 = private unnamed_addr constant [17 x i8] c"test_pem_a0a_a0b\00", align 1
@.str.26 = private unnamed_addr constant [20 x i8] c"test_pem_match_size\00", align 1
@.str.27 = private unnamed_addr constant [21 x i8] c"test_pem_exceed_size\00", align 1
@.str.28 = private unnamed_addr constant [20 x i8] c"test_pkcs8_negative\00", align 1
@.str.29 = private unnamed_addr constant [23 x i8] c"test_pkcs8_zero_length\00", align 1
@.str.30 = private unnamed_addr constant [16 x i8] c"test_pkcs8_weak\00", align 1
@.str.31 = private unnamed_addr constant [18 x i8] c"test_pkcs8_16zero\00", align 1
@.str.32 = private unnamed_addr constant [15 x i8] c"test_pkcs8_a0a\00", align 1
@.str.33 = private unnamed_addr constant [19 x i8] c"test_pkcs8_a0a_a0b\00", align 1
@.str.34 = private unnamed_addr constant [22 x i8] c"test_pkcs8_match_size\00", align 1
@.str.35 = private unnamed_addr constant [23 x i8] c"test_pkcs8_exceed_size\00", align 1

; Function Attrs: nounwind uwtable
define dso_local i32 @setup_tests() #0 {
  %1 = alloca i32, align 4
  %2 = alloca i32, align 4
  %3 = alloca ptr, align 8
  %4 = alloca i32, align 4
  call void @llvm.lifetime.start.p0(i64 4, ptr %2) #5
  call void @llvm.lifetime.start.p0(i64 8, ptr %3) #5
  store ptr null, ptr %3, align 8, !tbaa !4
  br label %5

5:                                                ; preds = %15, %0
  %6 = call i32 @opt_next()
  store i32 %6, ptr %2, align 4, !tbaa !9
  %7 = icmp ne i32 %6, 0
  br i1 %7, label %8, label %16

8:                                                ; preds = %5
  %9 = load i32, ptr %2, align 4, !tbaa !9
  switch i32 %9, label %13 [
    i32 1, label %10
    i32 500, label %12
    i32 501, label %12
    i32 502, label %12
    i32 503, label %12
    i32 504, label %12
    i32 505, label %12
    i32 -1, label %14
  ]

10:                                               ; preds = %8
  %11 = call ptr @opt_arg()
  store ptr %11, ptr @key_file, align 8, !tbaa !11
  br label %15

12:                                               ; preds = %8, %8, %8, %8, %8, %8
  br label %15

13:                                               ; preds = %8
  br label %14

14:                                               ; preds = %8, %13
  store i32 0, ptr %1, align 4
  store i32 1, ptr %4, align 4
  br label %31

15:                                               ; preds = %12, %10
  br label %5, !llvm.loop !13

16:                                               ; preds = %5
  %17 = load ptr, ptr @key_file, align 8, !tbaa !11
  %18 = call ptr @BIO_new_file(ptr noundef %17, ptr noundef @.str.18)
  store ptr %18, ptr %3, align 8, !tbaa !4
  %19 = call i32 @test_ptr(ptr noundef @.str.16, i32 noundef 372, ptr noundef @.str.17, ptr noundef %18)
  %20 = icmp ne i32 %19, 0
  br i1 %20, label %22, label %21

21:                                               ; preds = %16
  store i32 0, ptr %1, align 4
  store i32 1, ptr %4, align 4
  br label %31

22:                                               ; preds = %16
  %23 = load ptr, ptr %3, align 8, !tbaa !4
  %24 = call ptr @PEM_read_bio_PrivateKey(ptr noundef %23, ptr noundef @original_pkey, ptr noundef @callback_original_pw, ptr noundef null)
  %25 = call i32 @test_ptr(ptr noundef @.str.16, i32 noundef 375, ptr noundef @.str.19, ptr noundef %24)
  %26 = icmp ne i32 %25, 0
  br i1 %26, label %28, label %27

27:                                               ; preds = %22
  store i32 0, ptr %1, align 4
  store i32 1, ptr %4, align 4
  br label %31

28:                                               ; preds = %22
  %29 = load ptr, ptr %3, align 8, !tbaa !4
  %30 = call i32 @BIO_free(ptr noundef %29)
  call void @add_test(ptr noundef @.str.20, ptr noundef @test_pem_negative)
  call void @add_test(ptr noundef @.str.21, ptr noundef @test_pem_zero_length)
  call void @add_test(ptr noundef @.str.22, ptr noundef @test_pem_weak)
  call void @add_test(ptr noundef @.str.23, ptr noundef @test_pem_16zero)
  call void @add_test(ptr noundef @.str.24, ptr noundef @test_pem_a0a)
  call void @add_test(ptr noundef @.str.25, ptr noundef @test_pem_a0a_a0b)
  call void @add_test(ptr noundef @.str.26, ptr noundef @test_pem_match_size)
  call void @add_test(ptr noundef @.str.27, ptr noundef @test_pem_exceed_size)
  call void @add_test(ptr noundef @.str.28, ptr noundef @test_pkcs8_negative)
  call void @add_test(ptr noundef @.str.29, ptr noundef @test_pkcs8_zero_length)
  call void @add_test(ptr noundef @.str.30, ptr noundef @test_pkcs8_weak)
  call void @add_test(ptr noundef @.str.31, ptr noundef @test_pkcs8_16zero)
  call void @add_test(ptr noundef @.str.32, ptr noundef @test_pkcs8_a0a)
  call void @add_test(ptr noundef @.str.33, ptr noundef @test_pkcs8_a0a_a0b)
  call void @add_test(ptr noundef @.str.34, ptr noundef @test_pkcs8_match_size)
  call void @add_test(ptr noundef @.str.35, ptr noundef @test_pkcs8_exceed_size)
  store i32 1, ptr %1, align 4
  store i32 1, ptr %4, align 4
  br label %31

31:                                               ; preds = %28, %27, %21, %14
  call void @llvm.lifetime.end.p0(i64 8, ptr %3) #5
  call void @llvm.lifetime.end.p0(i64 4, ptr %2) #5
  %32 = load i32, ptr %1, align 4
  ret i32 %32
}