; Function Attrs: nounwind uwtable
define dso_local range(i32 0, 2) i32 @setup_tests() local_unnamed_addr #1 {
  br label %1

1:                                                ; preds = %.backedge, %0
  %2 = tail call i32 @opt_next() #7
  switch i32 %2, label %.loopexit [
    i32 0, label %5
    i32 1, label %3
    i32 500, label %.backedge
    i32 501, label %.backedge
    i32 502, label %.backedge
    i32 503, label %.backedge
    i32 504, label %.backedge
    i32 505, label %.backedge
  ]

.backedge:                                        ; preds = %1, %1, %1, %1, %1, %1, %3
  br label %1, !llvm.loop !4

3:                                                ; preds = %1
  %4 = tail call ptr @opt_arg() #7
  store ptr %4, ptr @key_file, align 8, !tbaa !6
  br label %.backedge

5:                                                ; preds = %1
  %6 = load ptr, ptr @key_file, align 8, !tbaa !6
  %7 = tail call ptr @BIO_new_file(ptr noundef %6, ptr noundef nonnull @.str.18) #7
  %8 = tail call i32 @test_ptr(ptr noundef nonnull @.str.16, i32 noundef 372, ptr noundef nonnull @.str.17, ptr noundef %7) #7
  %.not4 = icmp eq i32 %8, 0
  br i1 %.not4, label %.loopexit, label %9

9:                                                ; preds = %5
  %10 = tail call ptr @PEM_read_bio_PrivateKey(ptr noundef %7, ptr noundef nonnull @original_pkey, ptr noundef nonnull @callback_original_pw, ptr noundef null) #7
  %11 = tail call i32 @test_ptr(ptr noundef nonnull @.str.16, i32 noundef 375, ptr noundef nonnull @.str.19, ptr noundef %10) #7
  %.not5 = icmp eq i32 %11, 0
  br i1 %.not5, label %.loopexit, label %12

12:                                               ; preds = %9
  %13 = tail call i32 @BIO_free(ptr noundef %7) #7
  tail call void @add_test(ptr noundef nonnull @.str.20, ptr noundef nonnull @test_pem_negative) #7
  tail call void @add_test(ptr noundef nonnull @.str.21, ptr noundef nonnull @test_pem_zero_length) #7
  tail call void @add_test(ptr noundef nonnull @.str.22, ptr noundef nonnull @test_pem_weak) #7
  tail call void @add_test(ptr noundef nonnull @.str.23, ptr noundef nonnull @test_pem_16zero) #7
  tail call void @add_test(ptr noundef nonnull @.str.24, ptr noundef nonnull @test_pem_a0a) #7
  tail call void @add_test(ptr noundef nonnull @.str.25, ptr noundef nonnull @test_pem_a0a_a0b) #7
  tail call void @add_test(ptr noundef nonnull @.str.26, ptr noundef nonnull @test_pem_match_size) #7
  tail call void @add_test(ptr noundef nonnull @.str.27, ptr noundef nonnull @test_pem_exceed_size) #7
  tail call void @add_test(ptr noundef nonnull @.str.28, ptr noundef nonnull @test_pkcs8_negative) #7
  tail call void @add_test(ptr noundef nonnull @.str.29, ptr noundef nonnull @test_pkcs8_zero_length) #7
  tail call void @add_test(ptr noundef nonnull @.str.30, ptr noundef nonnull @test_pkcs8_weak) #7
  tail call void @add_test(ptr noundef nonnull @.str.31, ptr noundef nonnull @test_pkcs8_16zero) #7
  tail call void @add_test(ptr noundef nonnull @.str.32, ptr noundef nonnull @test_pkcs8_a0a) #7
  tail call void @add_test(ptr noundef nonnull @.str.33, ptr noundef nonnull @test_pkcs8_a0a_a0b) #7
  tail call void @add_test(ptr noundef nonnull @.str.34, ptr noundef nonnull @test_pkcs8_match_size) #7
  tail call void @add_test(ptr noundef nonnull @.str.35, ptr noundef nonnull @test_pkcs8_exceed_size) #7
  br label %.loopexit

.loopexit:                                        ; preds = %1, %9, %5, %12
  %.0 = phi i32 [ 1, %12 ], [ 0, %5 ], [ 0, %9 ], [ 0, %1 ]
  ret i32 %.0
}